target datalayout = "e-m:e-p270:32:32-p271:32:32-p272:64:64-i64:64-i128:128-f80:128-n8:16:32:64-S128"
target triple = "x86_64-pc-linux-gnu"

%"class.boost::atomics::atomic_ref" = type { %"class.boost::atomics::detail::base_atomic_ref" }
%"class.boost::atomics::detail::base_atomic_ref" = type { %"class.boost::atomics::detail::base_atomic_ref_common" }
%"class.boost::atomics::detail::base_atomic_ref_common" = type { ptr }

@_ZN5boost10filesystem6detail12_GLOBAL__N_114copy_file_dataE = internal global ptr @_ZN5boost10filesystem6detail12_GLOBAL__N_125copy_file_data_read_writeEiimm, align 8

; Function Attrs: alwaysinline mustprogress nounwind uwtable
define linkonce_odr hidden noundef i64 @_ZN5boost7atomics6detail17bitwise_cast_implImLm8EPFiiimmEEET_RKT1_St17integral_constantIbLb1EE(ptr noundef nonnull align 8 dereferenceable(8) %0) #6 comdat {
  %2 = alloca ptr, align 8
  store ptr %0, ptr %2, align 8, !tbaa !3
  %3 = load ptr, ptr %2, align 8, !tbaa !3
  %4 = load i64, ptr %3, align 8, !tbaa !22
  ret i64 %4
}

; Function Attrs: alwaysinline mustprogress nounwind uwtable
define linkonce_odr hidden noundef ptr @_ZN5boost7atomics6detail9addressofIPFiiimmEEEPT_RS5_(ptr noundef nonnull align 8 dereferenceable(8) %0) #6 comdat {
  %2 = alloca ptr, align 8
  store ptr %0, ptr %2, align 8, !tbaa !3
  %3 = load ptr, ptr %2, align 8, !tbaa !3
  ret ptr %3
}

; Function Attrs: alwaysinline mustprogress nounwind uwtable
define linkonce_odr hidden noundef i32 @_ZN5boost7atomics6detail27convert_memory_order_to_gccENS_12memory_orderE(i32 noundef %0) #6 comdat {
  %2 = alloca i32, align 4
  store i32 %0, ptr %2, align 4, !tbaa !107
  %3 = load i32, ptr %2, align 4, !tbaa !107
  %4 = icmp eq i32 %3, 0
  br i1 %4, label %5, label %6

5:                                                ; preds = %1
  br label %28

6:                                                ; preds = %1
  %7 = load i32, ptr %2, align 4, !tbaa !107
  %8 = icmp eq i32 %7, 1
  br i1 %8, label %9, label %10

9:                                                ; preds = %6
  br label %26

10:                                               ; preds = %6
  %11 = load i32, ptr %2, align 4, !tbaa !107
  %12 = icmp eq i32 %11, 2
  br i1 %12, label %13, label %14

13:                                               ; preds = %10
  br label %24

14:                                               ; preds = %10
  %15 = load i32, ptr %2, align 4, !tbaa !107
  %16 = icmp eq i32 %15, 4
  br i1 %16, label %17, label %18

17:                                               ; preds = %14
  br label %22

18:                                               ; preds = %14
  %19 = load i32, ptr %2, align 4, !tbaa !107
  %20 = icmp eq i32 %19, 6
  %21 = select i1 %20, i32 4, i32 5
  br label %22

22:                                               ; preds = %18, %17
  %23 = phi i32 [ 3, %17 ], [ %21, %18 ]
  br label %24

24:                                               ; preds = %22, %13
  %25 = phi i32 [ 2, %13 ], [ %23, %22 ]
  br label %26

26:                                               ; preds = %24, %9
  %27 = phi i32 [ 1, %9 ], [ %25, %24 ]
  br label %28

28:                                               ; preds = %26, %5
  %29 = phi i32 [ 0, %5 ], [ %27, %26 ]
  ret i32 %29
}

; Function Attrs: alwaysinline mustprogress nounwind uwtable
define linkonce_odr hidden noundef i64 @_ZN5boost7atomics6detail12bitwise_castImLm8EPFiiimmEEET_RKT1_(ptr noundef nonnull align 8 dereferenceable(8) %0) #6 comdat {
  %2 = alloca ptr, align 8
  store ptr %0, ptr %2, align 8, !tbaa !3
  %3 = load ptr, ptr %2, align 8, !tbaa !3
  %4 = call noundef i64 @_ZN5boost7atomics6detail17bitwise_cast_implImLm8EPFiiimmEEET_RKT1_St17integral_constantIbLb1EE(ptr noundef nonnull align 8 dereferenceable(8) %3) #14
  ret i64 %4
}

; Function Attrs: alwaysinline mustprogress nounwind uwtable
define linkonce_odr hidden void @_ZN5boost7atomics6detail22base_atomic_ref_commonIPFiiimmELb0ELb0EEC2ERS4_(ptr noundef nonnull align 8 dereferenceable(8) %0, ptr noundef nonnull align 8 dereferenceable(8) %1) unnamed_addr #6 comdat align 2 {
  %3 = alloca ptr, align 8
  %4 = alloca ptr, align 8
  store ptr %0, ptr %3, align 8, !tbaa !3
  store ptr %1, ptr %4, align 8, !tbaa !3
  %5 = load ptr, ptr %3, align 8
  %6 = getelementptr inbounds nuw %"class.boost::atomics::detail::base_atomic_ref_common", ptr %5, i32 0, i32 0
  %7 = load ptr, ptr %4, align 8, !tbaa !3
  %8 = call noundef ptr @_ZN5boost7atomics6detail9addressofIPFiiimmEEEPT_RS5_(ptr noundef nonnull align 8 dereferenceable(8) %7) #14
  store ptr %8, ptr %6, align 8, !tbaa !109
  ret void
}

; Function Attrs: alwaysinline mustprogress nounwind uwtable
define linkonce_odr hidden void @_ZN5boost7atomics6detail26core_operations_gcc_atomicILm8ELb0ELb0EE5storeERVmmNS_12memory_orderE(ptr noundef nonnull align 8 dereferenceable(8) %0, i64 noundef %1, i32 noundef %2) #6 comdat align 2 {
  %4 = alloca ptr, align 8
  %5 = alloca i64, align 8
  %6 = alloca i32, align 4
  %7 = alloca i64, align 8
  store ptr %0, ptr %4, align 8, !tbaa !3
  store i64 %1, ptr %5, align 8, !tbaa !22
  store i32 %2, ptr %6, align 4, !tbaa !107
  %8 = load ptr, ptr %4, align 8, !tbaa !3
  %9 = load i32, ptr %6, align 4, !tbaa !107
  %10 = call noundef i32 @_ZN5boost7atomics6detail27convert_memory_order_to_gccENS_12memory_orderE(i32 noundef %9) #14
  %11 = load i64, ptr %5, align 8, !tbaa !22
  store i64 %11, ptr %7, align 8, !tbaa !22
  switch i32 %10, label %12 [
    i32 3, label %14
    i32 5, label %16
  ]

12:                                               ; preds = %3
  %13 = load i64, ptr %7, align 8
  store atomic volatile i64 %13, ptr %8 monotonic, align 8
  br label %18

14:                                               ; preds = %3
  %15 = load i64, ptr %7, align 8
  store atomic volatile i64 %15, ptr %8 release, align 8
  br label %18

16:                                               ; preds = %3
  %17 = load i64, ptr %7, align 8
  store atomic volatile i64 %17, ptr %8 seq_cst, align 8
  br label %18

18:                                               ; preds = %16, %14, %12
  ret void
}

; Function Attrs: alwaysinline mustprogress nounwind uwtable
define linkonce_odr hidden noundef i64 @_ZN5boost7atomics6detail12bitwise_castImPFiiimmEEET_RKT0_(ptr noundef nonnull align 8 dereferenceable(8) %0) #6 comdat {
  %2 = alloca ptr, align 8
  store ptr %0, ptr %2, align 8, !tbaa !3
  %3 = load ptr, ptr %2, align 8, !tbaa !3
  %4 = call noundef i64 @_ZN5boost7atomics6detail12bitwise_castImLm8EPFiiimmEEET_RKT1_(ptr noundef nonnull align 8 dereferenceable(8) %3) #14
  ret i64 %4
}

; Function Attrs: alwaysinline mustprogress nounwind uwtable
define linkonce_odr hidden noundef nonnull align 8 dereferenceable(8) ptr @_ZNK5boost7atomics6detail22base_atomic_ref_commonIPFiiimmELb0ELb0EE7storageEv(ptr noundef nonnull align 8 dereferenceable(8) %0) #6 comdat align 2 {
  %2 = alloca ptr, align 8
  store ptr %0, ptr %2, align 8, !tbaa !3
  %3 = load ptr, ptr %2, align 8
  %4 = getelementptr inbounds nuw %"class.boost::atomics::detail::base_atomic_ref_common", ptr %3, i32 0, i32 0
  %5 = load ptr, ptr %4, align 8, !tbaa !109
  ret ptr %5
}

; Function Attrs: alwaysinline mustprogress nounwind uwtable
define linkonce_odr hidden void @_ZN5boost7atomics6detail15base_atomic_refIPFiiimmEvLb0EEC2ERS4_(ptr noundef nonnull align 8 dereferenceable(8) %0, ptr noundef nonnull align 8 dereferenceable(8) %1) unnamed_addr #6 comdat align 2 {
  %3 = alloca ptr, align 8
  %4 = alloca ptr, align 8
  store ptr %0, ptr %3, align 8, !tbaa !3
  store ptr %1, ptr %4, align 8, !tbaa !3
  %5 = load ptr, ptr %3, align 8
  %6 = load ptr, ptr %4, align 8, !tbaa !3
  call void @_ZN5boost7atomics6detail22base_atomic_ref_commonIPFiiimmELb0ELb0EEC2ERS4_(ptr noundef nonnull align 8 dereferenceable(8) %5, ptr noundef nonnull align 8 dereferenceable(8) %6) #14
  ret void
}

; Function Attrs: alwaysinline mustprogress nounwind uwtable
define linkonce_odr hidden void @_ZNK5boost7atomics6detail15base_atomic_refIPFiiimmEvLb0EE5storeES4_NS_12memory_orderE(ptr noundef nonnull align 8 dereferenceable(8) %0, ptr noundef %1, i32 noundef %2) #6 comdat align 2 {
  %4 = alloca ptr, align 8
  %5 = alloca ptr, align 8
  %6 = alloca i32, align 4
  store ptr %0, ptr %4, align 8, !tbaa !3
  store ptr %1, ptr %5, align 8, !tbaa !3
  store i32 %2, ptr %6, align 4, !tbaa !107
  %7 = load ptr, ptr %4, align 8
  %8 = call noundef nonnull align 8 dereferenceable(8) ptr @_ZNK5boost7atomics6detail22base_atomic_ref_commonIPFiiimmELb0ELb0EE7storageEv(ptr noundef nonnull align 8 dereferenceable(8) %7) #14
  %9 = call noundef i64 @_ZN5boost7atomics6detail12bitwise_castImPFiiimmEEET_RKT0_(ptr noundef nonnull align 8 dereferenceable(8) %5) #14
  %10 = load i32, ptr %6, align 4, !tbaa !107
  call void @_ZN5boost7atomics6detail26core_operations_gcc_atomicILm8ELb0ELb0EE5storeERVmmNS_12memory_orderE(ptr noundef nonnull align 8 dereferenceable(8) %8, i64 noundef %9, i32 noundef %10) #14
  ret void
}

; Function Attrs: alwaysinline mustprogress nounwind uwtable
define linkonce_odr hidden void @_ZN5boost7atomics10atomic_refIPFiiimmEEC2ERS3_(ptr noundef nonnull align 8 dereferenceable(8) %0, ptr noundef nonnull align 8 dereferenceable(8) %1) unnamed_addr #6 comdat align 2 {
  %3 = alloca ptr, align 8
  %4 = alloca ptr, align 8
  store ptr %0, ptr %3, align 8, !tbaa !3
  store ptr %1, ptr %4, align 8, !tbaa !3
  %5 = load ptr, ptr %3, align 8
  %6 = load ptr, ptr %4, align 8, !tbaa !3
  call void @_ZN5boost7atomics6detail15base_atomic_refIPFiiimmEvLb0EEC2ERS4_(ptr noundef nonnull align 8 dereferenceable(8) %5, ptr noundef nonnull align 8 dereferenceable(8) %6) #14
  ret void
}

; Function Attrs: alwaysinline mustprogress nounwind uwtable
define linkonce_odr hidden void @_ZN5boost10filesystem6detail20atomic_store_relaxedIPFiiimmEEEvRT_S5_(ptr noundef nonnull align 8 dereferenceable(8) %0, ptr noundef %1) #6 comdat {
  %3 = alloca ptr, align 8
  %4 = alloca ptr, align 8
  %5 = alloca %"class.boost::atomics::atomic_ref", align 8
  store ptr %0, ptr %3, align 8, !tbaa !3
  store ptr %1, ptr %4, align 8, !tbaa !3
  call void @llvm.lifetime.start.p0(i64 8, ptr %5) #14
  %6 = load ptr, ptr %3, align 8, !tbaa !3
  call void @_ZN5boost7atomics10atomic_refIPFiiimmEEC2ERS3_(ptr noundef nonnull align 8 dereferenceable(8) %5, ptr noundef nonnull align 8 dereferenceable(8) %6) #14
  %7 = load ptr, ptr %4, align 8, !tbaa !3
  call void @_ZNK5boost7atomics6detail15base_atomic_refIPFiiimmEvLb0EE5storeES4_NS_12memory_orderE(ptr noundef nonnull align 8 dereferenceable(8) %5, ptr noundef %7, i32 noundef 0) #14
  call void @llvm.lifetime.end.p0(i64 8, ptr %5) #14
  ret void
}

; Function Attrs: mustprogress uwtable
define internal noundef i32 @_ZN5boost10filesystem6detail12_GLOBAL__N_123copy_file_data_sendfile4implEiimm(i32 noundef %0, i32 noundef %1, i64 noundef %2, i64 noundef %3) #5 align 2 {
  %5 = alloca i32, align 4
  %6 = alloca i32, align 4
  %7 = alloca i32, align 4
  %8 = alloca i64, align 8
  %9 = alloca i64, align 8
  %10 = alloca i64, align 8
  %11 = alloca i64, align 8
  %12 = alloca i64, align 8
  %13 = alloca i64, align 8
  %14 = alloca i64, align 8
  %15 = alloca i32, align 4
  %16 = alloca i32, align 4
  store i32 %0, ptr %6, align 4, !tbaa !7
  store i32 %1, ptr %7, align 4, !tbaa !7
  store i64 %2, ptr %8, align 8, !tbaa !23
  store i64 %3, ptr %9, align 8, !tbaa !23
  call void @llvm.lifetime.start.p0(i64 8, ptr %10) #14
  store i64 2147479552, ptr %10, align 8, !tbaa !23
  call void @llvm.lifetime.start.p0(i64 8, ptr %11) #14
  store i64 0, ptr %11, align 8, !tbaa !23
  br label %17

17:                                               ; preds = %77, %75, %4
  %18 = load i64, ptr %11, align 8, !tbaa !23
  %19 = load i64, ptr %8, align 8, !tbaa !23
  %20 = icmp ult i64 %18, %19
  br i1 %20, label %21, label %78

21:                                               ; preds = %17
  call void @llvm.lifetime.start.p0(i64 8, ptr %12) #14
  %22 = load i64, ptr %8, align 8, !tbaa !23
  %23 = load i64, ptr %11, align 8, !tbaa !23
  %24 = sub i64 %22, %23
  store i64 %24, ptr %12, align 8, !tbaa !23
  call void @llvm.lifetime.start.p0(i64 8, ptr %13) #14
  store i64 2147479552, ptr %13, align 8, !tbaa !23
  %25 = load i64, ptr %12, align 8, !tbaa !23
  %26 = icmp ult i64 %25, 2147479552
  br i1 %26, label %27, label %29

27:                                               ; preds = %21
  %28 = load i64, ptr %12, align 8, !tbaa !23
  store i64 %28, ptr %13, align 8, !tbaa !23
  br label %29

29:                                               ; preds = %27, %21
  call void @llvm.lifetime.start.p0(i64 8, ptr %14) #14
  %30 = load i32, ptr %7, align 4, !tbaa !7
  %31 = load i32, ptr %6, align 4, !tbaa !7
  %32 = load i64, ptr %13, align 8, !tbaa !23
  %33 = call i64 @sendfile64(i32 noundef %30, i32 noundef %31, ptr noundef null, i64 noundef %32) #14
  store i64 %33, ptr %14, align 8, !tbaa !23
  %34 = load i64, ptr %14, align 8, !tbaa !23
  %35 = icmp sgt i64 %34, 0
  %36 = zext i1 %35 to i64
  %37 = call i64 @llvm.expect.i64(i64 %36, i64 1)
  %38 = icmp ne i64 %37, 0
  br i1 %38, label %39, label %43

39:                                               ; preds = %29
  %40 = load i64, ptr %14, align 8, !tbaa !23
  %41 = load i64, ptr %11, align 8, !tbaa !23
  %42 = add i64 %41, %40
  store i64 %42, ptr %11, align 8, !tbaa !23
  br label %74

43:                                               ; preds = %29
  %44 = load i64, ptr %14, align 8, !tbaa !23
  %45 = icmp slt i64 %44, 0
  br i1 %45, label %46, label %73

46:                                               ; preds = %43
  call void @llvm.lifetime.start.p0(i64 4, ptr %15) #14
  %47 = call ptr @__errno_location() #22
  %48 = load i32, ptr %47, align 4, !tbaa !7
  store i32 %48, ptr %15, align 4, !tbaa !7
  %49 = load i32, ptr %15, align 4, !tbaa !7
  %50 = icmp eq i32 %49, 4
  br i1 %50, label %51, label %52

51:                                               ; preds = %46
  store i32 2, ptr %16, align 4
  br label %72, !llvm.loop !105

52:                                               ; preds = %46
  %53 = load i64, ptr %11, align 8, !tbaa !23
  %54 = icmp eq i64 %53, 0
  br i1 %54, label %55, label %70

55:                                               ; preds = %52
  %56 = load i32, ptr %15, align 4, !tbaa !7
  %57 = icmp eq i32 %56, 22
  br i1 %57, label %58, label %65

58:                                               ; preds = %55
  br label %59

59:                                               ; preds = %68, %58
  %60 = load i32, ptr %6, align 4, !tbaa !7
  %61 = load i32, ptr %7, align 4, !tbaa !7
  %62 = load i64, ptr %8, align 8, !tbaa !23
  %63 = load i64, ptr %9, align 8, !tbaa !23
  %64 = call noundef i32 @_ZN5boost10filesystem6detail12_GLOBAL__N_125copy_file_data_read_writeEiimm(i32 noundef %60, i32 noundef %61, i64 noundef %62, i64 noundef %63)
  store i32 %64, ptr %5, align 4
  store i32 1, ptr %16, align 4
  br label %72

65:                                               ; preds = %55
  %66 = load i32, ptr %15, align 4, !tbaa !7
  %67 = icmp eq i32 %66, 38
  br i1 %67, label %68, label %69

68:                                               ; preds = %65
  call void @_ZN5boost10filesystem6detail20atomic_store_relaxedIPFiiimmEEEvRT_S5_(ptr noundef nonnull align 8 dereferenceable(8) @_ZN5boost10filesystem6detail12_GLOBAL__N_114copy_file_dataE, ptr noundef @_ZN5boost10filesystem6detail12_GLOBAL__N_125copy_file_data_read_writeEiimm)
  br label %59

69:                                               ; preds = %65
  br label %70

70:                                               ; preds = %69, %52
  %71 = load i32, ptr %15, align 4, !tbaa !7
  store i32 %71, ptr %5, align 4
  store i32 1, ptr %16, align 4
  br label %72

72:                                               ; preds = %70, %59, %51
  call void @llvm.lifetime.end.p0(i64 4, ptr %15) #14
  br label %75

73:                                               ; preds = %43
  store i32 3, ptr %16, align 4
  br label %75

74:                                               ; preds = %39
  store i32 0, ptr %16, align 4
  br label %75

75:                                               ; preds = %74, %73, %72
  call void @llvm.lifetime.end.p0(i64 8, ptr %14) #14
  call void @llvm.lifetime.end.p0(i64 8, ptr %13) #14
  call void @llvm.lifetime.end.p0(i64 8, ptr %12) #14
  %76 = load i32, ptr %16, align 4
  switch i32 %76, label %79 [
    i32 0, label %77
    i32 2, label %17
    i32 3, label %78
  ]

77:                                               ; preds = %75
  br label %17, !llvm.loop !105

78:                                               ; preds = %75, %17
  store i32 0, ptr %5, align 4
  store i32 1, ptr %16, align 4
  br label %79

79:                                               ; preds = %78, %75
  call void @llvm.lifetime.end.p0(i64 8, ptr %11) #14
  call void @llvm.lifetime.end.p0(i64 8, ptr %10) #14
  %80 = load i32, ptr %5, align 4
  ret i32 %80
}