; Function Attrs: mustprogress uwtable
define internal fastcc noundef range(i32 5, 4) i32 @_ZN5boost10filesystem6detail12_GLOBAL__N_123copy_file_data_sendfile4implEiimm(i32 noundef %0, i32 noundef %1, i64 noundef %2, i64 noundef %3) unnamed_addr #5 align 2 {
  %.not = icmp eq i64 %2, 0
  br i1 %.not, label %.thread37, label %.lr.ph

.lr.ph:                                           ; preds = %4, %21
  %.02642 = phi i64 [ %.127, %21 ], [ 0, %4 ]
  %5 = sub nuw i64 %2, %.02642
  %spec.select = tail call i64 @llvm.umin.i64(i64 %5, i64 2147479552)
  %6 = tail call i64 @sendfile64(i32 noundef %1, i32 noundef %0, ptr noundef null, i64 noundef %spec.select) #27
  %7 = icmp sgt i64 %6, 0
  br i1 %7, label %8, label %10, !prof !32

8:                                                ; preds = %.lr.ph
  %9 = add i64 %6, %.02642
  br label %21

10:                                               ; preds = %.lr.ph
  %11 = icmp slt i64 %6, 0
  br i1 %11, label %12, label %.thread37

12:                                               ; preds = %10
  %13 = tail call ptr @__errno_location() #30
  %14 = load i32, ptr %13, align 4, !tbaa !19
  %15 = icmp eq i32 %14, 4
  br i1 %15, label %21, label %16, !llvm.loop !201

16:                                               ; preds = %12
  %17 = icmp eq i64 %.02642, 0
  br i1 %17, label %18, label %.thread37

18:                                               ; preds = %16
  switch i32 %14, label %.thread37 [
    i32 22, label %19
    i32 38, label %_ZN5boost7atomics6detail26core_operations_gcc_atomicILm8ELb0ELb0EE5storeERVmmNS_12memory_orderE.exit
  ]

19:                                               ; preds = %18, %_ZN5boost7atomics6detail26core_operations_gcc_atomicILm8ELb0ELb0EE5storeERVmmNS_12memory_orderE.exit
  %20 = tail call noundef i32 @_ZN5boost10filesystem6detail12_GLOBAL__N_125copy_file_data_read_writeEiimm(i32 noundef %0, i32 noundef %1, i64 noundef %2, i64 noundef %3)
  br label %.thread37

_ZN5boost7atomics6detail26core_operations_gcc_atomicILm8ELb0ELb0EE5storeERVmmNS_12memory_orderE.exit: ; preds = %18
  store atomic volatile i64 ptrtoint (ptr @_ZN5boost10filesystem6detail12_GLOBAL__N_125copy_file_data_read_writeEiimm to i64), ptr @_ZN5boost10filesystem6detail12_GLOBAL__N_114copy_file_dataE monotonic, align 8
  br label %19

21:                                               ; preds = %12, %8
  %.127 = phi i64 [ %9, %8 ], [ %.02642, %12 ]
  %22 = icmp ult i64 %.127, %2
  br i1 %22, label %.lr.ph, label %.thread37

.thread37:                                        ; preds = %21, %10, %4, %16, %18, %19
  %.3 = phi i32 [ %14, %16 ], [ %14, %18 ], [ %20, %19 ], [ 0, %4 ], [ 0, %10 ], [ 0, %21 ]
  ret i32 %.3
}